; Function Attrs: mustprogress nounwind uwtable
define void @_ZN8WasmEdge4LLVM10JITLibraryC2ENS0_8OrcLLJITE(ptr nocapture noundef nonnull writeonly align 8 dereferenceable(32) %0, ptr nocapture noundef %1) unnamed_addr #0 align 2 {
_ZNSt10unique_ptrIN8WasmEdge4LLVM8OrcLLJITESt14default_deleteIS2_EED2Ev.exit:
  %2 = getelementptr inbounds i8, ptr %0, i64 8
  tail call void @llvm.memset.p0.i64(ptr noundef nonnull align 8 dereferenceable(16) %2, i8 0, i64 16, i1 false)
  store ptr getelementptr inbounds inrange(-16, 40) (i8, ptr @_ZTVN8WasmEdge4LLVM10JITLibraryE, i64 16), ptr %0, align 8
  %3 = getelementptr inbounds i8, ptr %0, i64 24
  %4 = tail call noalias noundef nonnull dereferenceable(8) ptr @_Znwm(i64 noundef 8) #15, !noalias !4
  %5 = load ptr, ptr %1, align 8, !noalias !4
  store ptr %5, ptr %4, align 8, !noalias !4
  store ptr null, ptr %1, align 8, !noalias !4
  store ptr %4, ptr %3, align 8
  ret void
}